target datalayout = "e-m:e-p270:32:32-p271:32:32-p272:64:64-i64:64-i128:128-f80:128-n8:16:32:64-S128"
target triple = "x86_64-pc-linux-gnu"

%class.EnabledProtocolItem = type { %class.ModelHelperTreeItem, %class.QString, %class.QString, i8, i8, i32 }
%class.ModelHelperTreeItem = type { ptr, ptr, %class.QList }
%class.QList = type { %struct.QArrayDataPointer.0 }
%struct.QArrayDataPointer.0 = type { ptr, ptr, i64 }
%class.QString = type { %struct.QArrayDataPointer }
%struct.QArrayDataPointer = type { ptr, ptr, i64 }
%class.QModelIndex = type { i32, i32, i64, ptr }
%class.QVariant = type { %"struct.QVariant::Private" }
%"struct.QVariant::Private" = type { %union.anon, i64 }
%union.anon = type { ptr, [16 x i8] }

; Function Attrs: mustprogress nounwind null_pointer_is_valid sspstrong uwtable
define linkonce_odr void @_ZN19EnabledProtocolItem10setEnabledEb(ptr noundef align 8 dereferenceable_or_null(96) %0, i1 noundef zeroext %1) #1 comdat align 2 {
  %3 = alloca ptr, align 8
  %4 = alloca i8, align 1
  store ptr %0, ptr %3, align 8
  %5 = zext i1 %1 to i8
  store i8 %5, ptr %4, align 1
  %6 = load ptr, ptr %3, align 8
  %7 = load i8, ptr %4, align 1, !range !6, !noundef !7
  %8 = trunc i8 %7 to i1
  %9 = getelementptr inbounds nuw %class.EnabledProtocolItem, ptr %6, i32 0, i32 3
  %10 = zext i1 %8 to i8
  store i8 %10, ptr %9, align 8
  ret void
}

; Function Attrs: inlinehint mustprogress nounwind null_pointer_is_valid sspstrong uwtable
define linkonce_odr noundef ptr @_ZNK11QModelIndex15internalPointerEv(ptr noundef align 8 dereferenceable_or_null(24) %0) #2 comdat align 2 {
  %2 = alloca ptr, align 8
  store ptr %0, ptr %2, align 8
  %3 = load ptr, ptr %2, align 8
  %4 = getelementptr inbounds nuw %class.QModelIndex, ptr %3, i32 0, i32 2
  %5 = load i64, ptr %4, align 8
  %6 = inttoptr i64 %5 to ptr
  ret ptr %6
}

; Function Attrs: inlinehint mustprogress null_pointer_is_valid sspstrong uwtable
define linkonce_odr noundef zeroext i1 @_ZeqRK8QVariantS1_(ptr noundef align 8 dereferenceable(32) %0, ptr noundef align 8 dereferenceable(32) %1) #9 comdat {
  %3 = alloca ptr, align 8
  %4 = alloca ptr, align 8
  store ptr %0, ptr %3, align 8
  store ptr %1, ptr %4, align 8
  %5 = load ptr, ptr %3, align 8
  %6 = load ptr, ptr %4, align 8
  %7 = call noundef zeroext i1 @_ZNK8QVariant6equalsERKS_(ptr noundef align 8 dereferenceable_or_null(32) %5, ptr noundef align 8 dereferenceable(32) %6)
  ret i1 %7
}

; Function Attrs: inlinehint mustprogress nounwind null_pointer_is_valid sspstrong uwtable
define linkonce_odr noundef i32 @_ZNK11QModelIndex6columnEv(ptr noundef align 8 dereferenceable_or_null(24) %0) #2 comdat align 2 {
  %2 = alloca ptr, align 8
  store ptr %0, ptr %2, align 8
  %3 = load ptr, ptr %2, align 8
  %4 = getelementptr inbounds nuw %class.QModelIndex, ptr %3, i32 0, i32 1
  %5 = load i32, ptr %4, align 4
  ret i32 %5
}

; Function Attrs: inlinehint mustprogress nounwind null_pointer_is_valid sspstrong uwtable
define linkonce_odr noundef zeroext i1 @_ZNK11QModelIndex7isValidEv(ptr noundef align 8 dereferenceable_or_null(24) %0) #2 comdat align 2 {
  %2 = alloca ptr, align 8
  store ptr %0, ptr %2, align 8
  %3 = load ptr, ptr %2, align 8
  %4 = getelementptr inbounds nuw %class.QModelIndex, ptr %3, i32 0, i32 0
  %5 = load i32, ptr %4, align 8
  %6 = icmp sge i32 %5, 0
  br i1 %6, label %7, label %15

7:                                                ; preds = %1
  %8 = getelementptr inbounds nuw %class.QModelIndex, ptr %3, i32 0, i32 1
  %9 = load i32, ptr %8, align 4
  %10 = icmp sge i32 %9, 0
  br i1 %10, label %11, label %15

11:                                               ; preds = %7
  %12 = getelementptr inbounds nuw %class.QModelIndex, ptr %3, i32 0, i32 3
  %13 = load ptr, ptr %12, align 8
  %14 = icmp ne ptr %13, null
  br label %15

15:                                               ; preds = %11, %7, %1
  %16 = phi i1 [ false, %7 ], [ false, %1 ], [ %14, %11 ]
  ret i1 %16
}

; Function Attrs: mustprogress null_pointer_is_valid sspstrong uwtable
define noundef zeroext i1 @_ZN21EnabledProtocolsModel7setDataERK11QModelIndexRK8QVarianti(ptr noundef align 8 dereferenceable_or_null(24) %0, ptr noundef align 8 dereferenceable(24) %1, ptr noundef align 8 dereferenceable(32) %2, i32 noundef %3) unnamed_addr #0 align 2 personality ptr @__gxx_personality_v0 {
  %5 = alloca i1, align 1
  %6 = alloca ptr, align 8
  %7 = alloca ptr, align 8
  %8 = alloca ptr, align 8
  %9 = alloca i32, align 4
  %10 = alloca %class.QVariant, align 8
  %11 = alloca ptr, align 8
  %12 = alloca i32, align 4
  %13 = alloca ptr, align 8
  %14 = alloca i32, align 4
  store ptr %0, ptr %6, align 8
  store ptr %1, ptr %7, align 8
  store ptr %2, ptr %8, align 8
  store i32 %3, ptr %9, align 4
  %15 = load ptr, ptr %6, align 8
  %16 = load ptr, ptr %7, align 8
  %17 = call noundef zeroext i1 @_ZNK11QModelIndex7isValidEv(ptr noundef align 8 dereferenceable_or_null(24) %16) #20
  br i1 %17, label %19, label %18

18:                                               ; preds = %4
  store i1 false, ptr %5, align 1
  br label %57

19:                                               ; preds = %4
  %20 = load i32, ptr %9, align 4
  %21 = icmp ne i32 %20, 2
  br i1 %21, label %22, label %30

22:                                               ; preds = %19
  %23 = load ptr, ptr %7, align 8
  %24 = call noundef i32 @_ZNK11QModelIndex6columnEv(ptr noundef align 8 dereferenceable_or_null(24) %23) #20
  %25 = icmp eq i32 %24, 0
  br i1 %25, label %26, label %30

26:                                               ; preds = %22
  %27 = load i32, ptr %9, align 4
  %28 = icmp ne i32 %27, 10
  br i1 %28, label %29, label %30

29:                                               ; preds = %26
  store i1 false, ptr %5, align 1
  br label %57

30:                                               ; preds = %26, %22, %19
  call void @llvm.lifetime.start.p0(i64 32, ptr %10) #20
  %31 = load ptr, ptr %7, align 8
  %32 = load i32, ptr %9, align 4
  %33 = load ptr, ptr %15, align 8
  %34 = getelementptr inbounds ptr, ptr %33, i64 18
  %35 = load ptr, ptr %34, align 8
  call void %35(ptr dead_on_unwind writable sret(%class.QVariant) align 8 %10, ptr noundef align 8 dereferenceable_or_null(24) %15, ptr noundef align 8 dereferenceable(24) %31, i32 noundef %32)
  %36 = load ptr, ptr %8, align 8
  %37 = invoke noundef zeroext i1 @_ZeqRK8QVariantS1_(ptr noundef align 8 dereferenceable(32) %10, ptr noundef align 8 dereferenceable(32) %36)
          to label %38 unwind label %40

38:                                               ; preds = %30
  call void @_ZN8QVariantD1Ev(ptr noundef align 8 dereferenceable_or_null(32) %10) #20
  call void @llvm.lifetime.end.p0(i64 32, ptr %10) #20
  br i1 %37, label %39, label %44

39:                                               ; preds = %38
  store i1 true, ptr %5, align 1
  br label %57

40:                                               ; preds = %30
  %41 = landingpad { ptr, i32 }
          cleanup
  %42 = extractvalue { ptr, i32 } %41, 0
  store ptr %42, ptr %11, align 8
  %43 = extractvalue { ptr, i32 } %41, 1
  store i32 %43, ptr %12, align 4
  call void @_ZN8QVariantD1Ev(ptr noundef align 8 dereferenceable_or_null(32) %10) #20
  call void @llvm.lifetime.end.p0(i64 32, ptr %10) #20
  br label %59

44:                                               ; preds = %38
  call void @llvm.lifetime.start.p0(i64 8, ptr %13) #20
  %45 = load ptr, ptr %7, align 8
  %46 = call noundef ptr @_ZNK11QModelIndex15internalPointerEv(ptr noundef align 8 dereferenceable_or_null(24) %45) #20
  store ptr %46, ptr %13, align 8
  %47 = load ptr, ptr %13, align 8
  %48 = icmp eq ptr %47, null
  br i1 %48, label %49, label %50

49:                                               ; preds = %44
  store i1 false, ptr %5, align 1
  store i32 1, ptr %14, align 4
  br label %56

50:                                               ; preds = %44
  %51 = load ptr, ptr %13, align 8
  %52 = load ptr, ptr %8, align 8
  %53 = call noundef i32 @_ZNK8QVariant5toIntEPb(ptr noundef align 8 dereferenceable_or_null(32) %52, ptr noundef null)
  %54 = icmp eq i32 %53, 2
  %55 = select i1 %54, i1 true, i1 false
  call void @_ZN19EnabledProtocolItem10setEnabledEb(ptr noundef align 8 dereferenceable_or_null(96) %51, i1 noundef zeroext %55)
  store i1 true, ptr %5, align 1
  store i32 1, ptr %14, align 4
  br label %56

56:                                               ; preds = %50, %49
  call void @llvm.lifetime.end.p0(i64 8, ptr %13) #20
  br label %57

57:                                               ; preds = %56, %39, %29, %18
  %58 = load i1, ptr %5, align 1
  ret i1 %58

59:                                               ; preds = %40
  %60 = load ptr, ptr %11, align 8
  %61 = load i32, ptr %12, align 4
  %62 = insertvalue { ptr, i32 } poison, ptr %60, 0
  %63 = insertvalue { ptr, i32 } %62, i32 %61, 1
  resume { ptr, i32 } %63
}