; Function Attrs: mustprogress null_pointer_is_valid sspstrong uwtable
define noundef zeroext i1 @_ZN21EnabledProtocolsModel7setDataERK11QModelIndexRK8QVarianti(ptr noundef align 8 dereferenceable_or_null(24) %0, ptr noundef align 8 dereferenceable(24) %1, ptr noundef align 8 dereferenceable(32) %2, i32 noundef %3) unnamed_addr #4 align 2 personality ptr @__gxx_personality_v0 {
  %5 = alloca %class.QVariant, align 8
  %6 = load i32, ptr %1, align 8
  %7 = icmp sgt i32 %6, -1
  %8 = getelementptr inbounds nuw i8, ptr %1, i64 4
  %9 = load i32, ptr %8, align 4
  %10 = icmp sgt i32 %9, -1
  %or.cond19 = select i1 %7, i1 %10, i1 false
  %11 = getelementptr inbounds nuw i8, ptr %1, i64 16
  %12 = load ptr, ptr %11, align 8
  %13 = icmp ne ptr %12, null
  %or.cond22 = select i1 %or.cond19, i1 %13, i1 false
  br i1 %or.cond22, label %14, label %_ZNK11QModelIndex7isValidEv.exit.thread

14:                                               ; preds = %4
  %.not = icmp eq i32 %3, 2
  br i1 %.not, label %18, label %15

15:                                               ; preds = %14
  %16 = icmp eq i32 %9, 0
  %17 = icmp ne i32 %3, 10
  %or.cond = and i1 %17, %16
  br i1 %or.cond, label %_ZNK11QModelIndex7isValidEv.exit.thread, label %18

18:                                               ; preds = %15, %14
  call void @llvm.lifetime.start.p0(i64 32, ptr nonnull %5) #28
  %19 = load ptr, ptr %0, align 8
  %20 = getelementptr inbounds nuw i8, ptr %19, i64 144
  %21 = load ptr, ptr %20, align 8
  call void %21(ptr dead_on_unwind nonnull writable sret(%class.QVariant) align 8 %5, ptr noundef align 8 dereferenceable_or_null(24) %0, ptr noundef align 8 dereferenceable(24) %1, i32 noundef %3)
  %22 = invoke noundef zeroext i1 @_ZNK8QVariant6equalsERKS_(ptr noundef nonnull align 8 dereferenceable(32) dereferenceable_or_null(32) %5, ptr noundef align 8 dereferenceable(32) %2)
          to label %_ZeqRK8QVariantS1_.exit unwind label %23

_ZeqRK8QVariantS1_.exit:                          ; preds = %18
  call void @_ZN8QVariantD1Ev(ptr noundef nonnull align 8 dereferenceable_or_null(32) %5) #28
  call void @llvm.lifetime.end.p0(i64 32, ptr nonnull %5) #28
  br i1 %22, label %_ZNK11QModelIndex7isValidEv.exit.thread, label %25

23:                                               ; preds = %18
  %24 = landingpad { ptr, i32 }
          cleanup
  call void @_ZN8QVariantD1Ev(ptr noundef nonnull align 8 dereferenceable_or_null(32) %5) #28
  call void @llvm.lifetime.end.p0(i64 32, ptr nonnull %5) #28
  resume { ptr, i32 } %24

25:                                               ; preds = %_ZeqRK8QVariantS1_.exit
  %26 = getelementptr inbounds nuw i8, ptr %1, i64 8
  %27 = load i64, ptr %26, align 8
  %.not23 = icmp eq i64 %27, 0
  br i1 %.not23, label %_ZNK11QModelIndex7isValidEv.exit.thread, label %28

28:                                               ; preds = %25
  %29 = inttoptr i64 %27 to ptr
  %30 = call noundef i32 @_ZNK8QVariant5toIntEPb(ptr noundef align 8 dereferenceable_or_null(32) %2, ptr noundef null)
  %31 = icmp eq i32 %30, 2
  %32 = zext i1 %31 to i8
  %33 = getelementptr inbounds nuw i8, ptr %29, i64 88
  store i8 %32, ptr %33, align 8
  br label %_ZNK11QModelIndex7isValidEv.exit.thread

_ZNK11QModelIndex7isValidEv.exit.thread:          ; preds = %4, %28, %25, %_ZeqRK8QVariantS1_.exit, %15
  %.0 = phi i1 [ false, %15 ], [ true, %_ZeqRK8QVariantS1_.exit ], [ false, %25 ], [ true, %28 ], [ false, %4 ]
  ret i1 %.0
}